; Function Attrs: mustprogress nofree nounwind uwtable
define hidden noundef i32 @_ZN2os16snprintf_checkedEPcmPKcz(ptr nocapture noundef %0, i64 noundef %1, ptr nocapture noundef readonly %2, ...) local_unnamed_addr #0 align 2 {
  %4 = alloca [1 x %struct.__va_list_tag], align 16
  call void @llvm.va_start.p0(ptr nonnull %4)
  %5 = call i32 @vsnprintf(ptr noundef %0, i64 noundef %1, ptr noundef readonly %2, ptr noundef nonnull %4) #28
  %6 = icmp slt i32 %5, 0
  %7 = icmp ne i64 %1, 0
  %or.cond.i = and i1 %7, %6
  br i1 %or.cond.i, label %8, label %_ZN2os9vsnprintfEPcmPKcP13__va_list_tag.exit

8:                                                ; preds = %3
  %9 = getelementptr i8, ptr %0, i64 %1
  %10 = getelementptr i8, ptr %9, i64 -1
  store i8 0, ptr %10, align 1
  br label %_ZN2os9vsnprintfEPcmPKcP13__va_list_tag.exit

_ZN2os9vsnprintfEPcmPKcP13__va_list_tag.exit:     ; preds = %3, %8
  call void @llvm.va_end.p0(ptr nonnull %4)
  ret i32 %5
}